target datalayout = "e-m:e-p270:32:32-p271:32:32-p272:64:64-i64:64-i128:128-f80:128-n8:16:32:64-S128"
target triple = "x86_64-pc-linux-gnu"

%struct.tdefl_compressor = type { ptr, ptr, i32, [2 x i32], i32, i32, i32, i32, i32, ptr, ptr, ptr, ptr, i32, i32, i32, i32, i32, i32, i32, i32, i32, i32, i32, i32, i32, i32, ptr, ptr, ptr, ptr, i32, ptr, i64, i64, [33025 x i8], [3 x [288 x i16]], [3 x [288 x i16]], [3 x [288 x i8]], [65536 x i8], [32768 x i16], [32768 x i16], [85196 x i8] }
%struct.mz_zip_archive = type { i64, i64, i32, i32, i32, i32, i64, ptr, ptr, ptr, ptr, ptr, ptr, ptr, ptr, ptr }
%struct.mz_zip_writer_add_state = type { ptr, i64, i64 }
%struct.zip_t = type { %struct.mz_zip_archive, i32, %struct.zip_entry_t }
%struct.zip_entry_t = type { i64, ptr, i64, i64, i32, i64, [30 x i8], i64, i16, %struct.mz_zip_writer_add_state, %struct.tdefl_compressor, i32, i64 }

; Function Attrs: nounwind uwtable
define i32 @mz_zip_reader_extract_to_mem_no_alloc(ptr noundef %0, i32 noundef %1, ptr noundef %2, i64 noundef %3, i32 noundef %4, ptr noundef %5, i64 noundef %6) #0 {
  %8 = alloca ptr, align 8
  %9 = alloca i32, align 4
  %10 = alloca ptr, align 8
  %11 = alloca i64, align 8
  %12 = alloca i32, align 4
  %13 = alloca ptr, align 8
  %14 = alloca i64, align 8
  store ptr %0, ptr %8, align 8
  store i32 %1, ptr %9, align 4
  store ptr %2, ptr %10, align 8
  store i64 %3, ptr %11, align 8
  store i32 %4, ptr %12, align 4
  store ptr %5, ptr %13, align 8
  store i64 %6, ptr %14, align 8
  %15 = load ptr, ptr %8, align 8
  %16 = load i32, ptr %9, align 4
  %17 = load ptr, ptr %10, align 8
  %18 = load i64, ptr %11, align 8
  %19 = load i32, ptr %12, align 4
  %20 = load ptr, ptr %13, align 8
  %21 = load i64, ptr %14, align 8
  %22 = call i32 @mz_zip_reader_extract_to_mem_no_alloc1(ptr noundef %15, i32 noundef %16, ptr noundef %17, i64 noundef %18, i32 noundef %19, ptr noundef %20, i64 noundef %21, ptr noundef null)
  ret i32 %22
}

; Function Attrs: nounwind uwtable
define i64 @zip_entry_noallocread(ptr noundef %0, ptr noundef %1, i64 noundef %2) #0 {
  %4 = alloca i64, align 8
  %5 = alloca ptr, align 8
  %6 = alloca ptr, align 8
  %7 = alloca i64, align 8
  %8 = alloca ptr, align 8
  %9 = alloca i32, align 4
  store ptr %0, ptr %5, align 8
  store ptr %1, ptr %6, align 8
  store i64 %2, ptr %7, align 8
  call void @llvm.lifetime.start.p0(i64 8, ptr %8) #13
  store ptr null, ptr %8, align 8
  %10 = load ptr, ptr %5, align 8
  %11 = icmp ne ptr %10, null
  br i1 %11, label %13, label %12

12:                                               ; preds = %3
  store i64 -1, ptr %4, align 8
  store i32 1, ptr %9, align 4
  br label %44

13:                                               ; preds = %3
  %14 = load ptr, ptr %5, align 8
  %15 = getelementptr inbounds nuw %struct.zip_t, ptr %14, i32 0, i32 0
  store ptr %15, ptr %8, align 8
  %16 = load ptr, ptr %8, align 8
  %17 = getelementptr inbounds nuw %struct.mz_zip_archive, ptr %16, i32 0, i32 3
  %18 = load i32, ptr %17, align 4
  %19 = icmp ne i32 %18, 1
  br i1 %19, label %26, label %20

20:                                               ; preds = %13
  %21 = load ptr, ptr %5, align 8
  %22 = getelementptr inbounds nuw %struct.zip_t, ptr %21, i32 0, i32 2
  %23 = getelementptr inbounds nuw %struct.zip_entry_t, ptr %22, i32 0, i32 0
  %24 = load i64, ptr %23, align 8
  %25 = icmp slt i64 %24, 0
  br i1 %25, label %26, label %27

26:                                               ; preds = %20, %13
  store i64 -3, ptr %4, align 8
  store i32 1, ptr %9, align 4
  br label %44

27:                                               ; preds = %20
  %28 = load ptr, ptr %8, align 8
  %29 = load ptr, ptr %5, align 8
  %30 = getelementptr inbounds nuw %struct.zip_t, ptr %29, i32 0, i32 2
  %31 = getelementptr inbounds nuw %struct.zip_entry_t, ptr %30, i32 0, i32 0
  %32 = load i64, ptr %31, align 8
  %33 = trunc i64 %32 to i32
  %34 = load ptr, ptr %6, align 8
  %35 = load i64, ptr %7, align 8
  %36 = call i32 @mz_zip_reader_extract_to_mem_no_alloc(ptr noundef %28, i32 noundef %33, ptr noundef %34, i64 noundef %35, i32 noundef 0, ptr noundef null, i64 noundef 0)
  %37 = icmp ne i32 %36, 0
  br i1 %37, label %39, label %38

38:                                               ; preds = %27
  store i64 -18, ptr %4, align 8
  store i32 1, ptr %9, align 4
  br label %44

39:                                               ; preds = %27
  %40 = load ptr, ptr %5, align 8
  %41 = getelementptr inbounds nuw %struct.zip_t, ptr %40, i32 0, i32 2
  %42 = getelementptr inbounds nuw %struct.zip_entry_t, ptr %41, i32 0, i32 2
  %43 = load i64, ptr %42, align 8
  store i64 %43, ptr %4, align 8
  store i32 1, ptr %9, align 4
  br label %44

44:                                               ; preds = %39, %38, %26, %12
  call void @llvm.lifetime.end.p0(i64 8, ptr %8) #13
  %45 = load i64, ptr %4, align 8
  ret i64 %45
}