; Function Attrs: nounwind uwtable
define i64 @zip_entry_noallocread(ptr noundef captures(address_is_null) %0, ptr noundef %1, i64 noundef %2) local_unnamed_addr #8 {
  %.not = icmp eq ptr %0, null
  br i1 %.not, label %17, label %4

4:                                                ; preds = %3
  %5 = getelementptr inbounds nuw i8, ptr %0, i64 20
  %6 = load i32, ptr %5, align 4
  %.not11 = icmp eq i32 %6, 1
  br i1 %.not11, label %7, label %17

7:                                                ; preds = %4
  %8 = getelementptr inbounds nuw i8, ptr %0, i64 120
  %9 = load i64, ptr %8, align 8
  %10 = icmp slt i64 %9, 0
  br i1 %10, label %17, label %11

11:                                               ; preds = %7
  %12 = trunc i64 %9 to i32
  %13 = tail call fastcc range(i32 0, 2) i32 @mz_zip_reader_extract_to_mem_no_alloc1(ptr noundef nonnull %0, i32 noundef %12, ptr noundef %1, i64 noundef %2, i32 noundef 0, ptr noundef null, i64 noundef 0, ptr noundef null)
  %.not12 = icmp eq i32 %13, 0
  br i1 %.not12, label %17, label %14

14:                                               ; preds = %11
  %15 = getelementptr inbounds nuw i8, ptr %0, i64 136
  %16 = load i64, ptr %15, align 8
  br label %17

17:                                               ; preds = %11, %4, %7, %3, %14
  %.0 = phi i64 [ %16, %14 ], [ -1, %3 ], [ -3, %7 ], [ -3, %4 ], [ -18, %11 ]
  ret i64 %.0
}